
calculate_sum_O3.o:     file format elf64-x86-64


Disassembly of section .text:

0000000000000000 <calculate_sum>:
   0:	f3 0f 1e fa          	endbr64 
   4:	85 f6                	test   %esi,%esi
   6:	0f 84 c4 00 00 00    	je     d0 <calculate_sum+0xd0>
   c:	8d 46 ff             	lea    -0x1(%rsi),%eax
   f:	83 f8 03             	cmp    $0x3,%eax
  12:	0f 86 d9 00 00 00    	jbe    f1 <calculate_sum+0xf1>
  18:	89 f1                	mov    %esi,%ecx
  1a:	66 0f 6e e2          	movd   %edx,%xmm4
  1e:	66 0f ef c9          	pxor   %xmm1,%xmm1
  22:	48 89 f8             	mov    %rdi,%rax
  25:	c1 e9 02             	shr    $0x2,%ecx
  28:	66 0f 6f 2d 00 00 00 	movdqa 0x0(%rip),%xmm5        # 30 <calculate_sum+0x30>
  2f:	00 
  30:	66 0f 70 f4 00       	pshufd $0x0,%xmm4,%xmm6
  35:	66 0f ef e4          	pxor   %xmm4,%xmm4
  39:	48 c1 e1 04          	shl    $0x4,%rcx
  3d:	48 01 f9             	add    %rdi,%rcx
  40:	f3 0f 6f 38          	movdqu (%rax),%xmm7
  44:	66 0f 6f c6          	movdqa %xmm6,%xmm0
  48:	66 0f 6f d4          	movdqa %xmm4,%xmm2
  4c:	48 83 c0 10          	add    $0x10,%rax
  50:	66 0f 66 c7          	pcmpgtd %xmm7,%xmm0
  54:	66 0f df c5          	pandn  %xmm5,%xmm0
  58:	66 0f 66 d0          	pcmpgtd %xmm0,%xmm2
  5c:	66 0f 6f d8          	movdqa %xmm0,%xmm3
  60:	66 0f 62 da          	punpckldq %xmm2,%xmm3
  64:	66 0f 6a c2          	punpckhdq %xmm2,%xmm0
  68:	66 0f d4 cb          	paddq  %xmm3,%xmm1
  6c:	66 0f d4 c8          	paddq  %xmm0,%xmm1
  70:	48 39 c8             	cmp    %rcx,%rax
  73:	75 cb                	jne    40 <calculate_sum+0x40>
  75:	66 0f 6f c1          	movdqa %xmm1,%xmm0
  79:	89 f1                	mov    %esi,%ecx
  7b:	66 0f 73 d8 08       	psrldq $0x8,%xmm0
  80:	83 e1 fc             	and    $0xfffffffc,%ecx
  83:	66 0f d4 c1          	paddq  %xmm1,%xmm0
  87:	66 48 0f 7e c0       	movq   %xmm0,%rax
  8c:	40 f6 c6 03          	test   $0x3,%sil
  90:	74 5e                	je     f0 <calculate_sum+0xf0>
  92:	41 89 c8             	mov    %ecx,%r8d
  95:	42 39 14 87          	cmp    %edx,(%rdi,%r8,4)
  99:	7d 3d                	jge    d8 <calculate_sum+0xd8>
  9b:	44 8d 41 01          	lea    0x1(%rcx),%r8d
  9f:	41 39 f0             	cmp    %esi,%r8d
  a2:	73 2e                	jae    d2 <calculate_sum+0xd2>
  a4:	42 3b 14 87          	cmp    (%rdi,%r8,4),%edx
  a8:	7e 36                	jle    e0 <calculate_sum+0xe0>
  aa:	44 8d 41 02          	lea    0x2(%rcx),%r8d
  ae:	44 39 c6             	cmp    %r8d,%esi
  b1:	76 1f                	jbe    d2 <calculate_sum+0xd2>
  b3:	42 3b 14 87          	cmp    (%rdi,%r8,4),%edx
  b7:	7f 04                	jg     bd <calculate_sum+0xbd>
  b9:	48 83 c0 01          	add    $0x1,%rax
  bd:	83 c1 03             	add    $0x3,%ecx
  c0:	39 ce                	cmp    %ecx,%esi
  c2:	76 0e                	jbe    d2 <calculate_sum+0xd2>
  c4:	3b 14 8f             	cmp    (%rdi,%rcx,4),%edx
  c7:	7f 09                	jg     d2 <calculate_sum+0xd2>
  c9:	48 83 c0 01          	add    $0x1,%rax
  cd:	c3                   	retq   
  ce:	66 90                	xchg   %ax,%ax
  d0:	31 c0                	xor    %eax,%eax
  d2:	c3                   	retq   
  d3:	0f 1f 44 00 00       	nopl   0x0(%rax,%rax,1)
  d8:	48 83 c0 01          	add    $0x1,%rax
  dc:	eb bd                	jmp    9b <calculate_sum+0x9b>
  de:	66 90                	xchg   %ax,%ax
  e0:	48 83 c0 01          	add    $0x1,%rax
  e4:	eb c4                	jmp    aa <calculate_sum+0xaa>
  e6:	66 2e 0f 1f 84 00 00 	nopw   %cs:0x0(%rax,%rax,1)
  ed:	00 00 00 
  f0:	c3                   	retq   
  f1:	31 c9                	xor    %ecx,%ecx
  f3:	31 c0                	xor    %eax,%eax
  f5:	eb 9b                	jmp    92 <calculate_sum+0x92>
